target datalayout = "e-m:e-p270:32:32-p271:32:32-p272:64:64-i64:64-i128:128-f80:128-n8:16:32:64-S128"
target triple = "x86_64-unknown-linux-gnu"

; Function Attrs: nounwind uwtable
define hidden void @BF_ecb_encrypt(ptr noundef %in, ptr noundef %out, ptr noundef %key, i32 noundef %encrypt) #0 {
entry:
  %in.addr = alloca ptr, align 8
  %out.addr = alloca ptr, align 8
  %key.addr = alloca ptr, align 8
  %encrypt.addr = alloca i32, align 4
  %d = alloca [2 x i32], align 4
  store ptr %in, ptr %in.addr, align 8
  store ptr %out, ptr %out.addr, align 8
  store ptr %key, ptr %key.addr, align 8
  store i32 %encrypt, ptr %encrypt.addr, align 4
  %0 = load ptr, ptr %in.addr, align 8
  %incdec.ptr = getelementptr inbounds i8, ptr %0, i32 1
  store ptr %incdec.ptr, ptr %in.addr, align 8
  %1 = load i8, ptr %0, align 1
  %conv = zext i8 %1 to i64
  %shl = shl i64 %conv, 24
  %conv1 = trunc i64 %shl to i32
  %arrayidx = getelementptr inbounds [2 x i32], ptr %d, i64 0, i64 0
  store i32 %conv1, ptr %arrayidx, align 4
  %2 = load ptr, ptr %in.addr, align 8
  %incdec.ptr2 = getelementptr inbounds i8, ptr %2, i32 1
  store ptr %incdec.ptr2, ptr %in.addr, align 8
  %3 = load i8, ptr %2, align 1
  %conv3 = zext i8 %3 to i64
  %shl4 = shl i64 %conv3, 16
  %arrayidx5 = getelementptr inbounds [2 x i32], ptr %d, i64 0, i64 0
  %4 = load i32, ptr %arrayidx5, align 4
  %conv6 = zext i32 %4 to i64
  %or = or i64 %conv6, %shl4
  %conv7 = trunc i64 %or to i32
  store i32 %conv7, ptr %arrayidx5, align 4
  %5 = load ptr, ptr %in.addr, align 8
  %incdec.ptr8 = getelementptr inbounds i8, ptr %5, i32 1
  store ptr %incdec.ptr8, ptr %in.addr, align 8
  %6 = load i8, ptr %5, align 1
  %conv9 = zext i8 %6 to i64
  %shl10 = shl i64 %conv9, 8
  %arrayidx11 = getelementptr inbounds [2 x i32], ptr %d, i64 0, i64 0
  %7 = load i32, ptr %arrayidx11, align 4
  %conv12 = zext i32 %7 to i64
  %or13 = or i64 %conv12, %shl10
  %conv14 = trunc i64 %or13 to i32
  store i32 %conv14, ptr %arrayidx11, align 4
  %8 = load ptr, ptr %in.addr, align 8
  %incdec.ptr15 = getelementptr inbounds i8, ptr %8, i32 1
  store ptr %incdec.ptr15, ptr %in.addr, align 8
  %9 = load i8, ptr %8, align 1
  %conv16 = zext i8 %9 to i64
  %arrayidx17 = getelementptr inbounds [2 x i32], ptr %d, i64 0, i64 0
  %10 = load i32, ptr %arrayidx17, align 4
  %conv18 = zext i32 %10 to i64
  %or19 = or i64 %conv18, %conv16
  %conv20 = trunc i64 %or19 to i32
  store i32 %conv20, ptr %arrayidx17, align 4
  %11 = load ptr, ptr %in.addr, align 8
  %incdec.ptr21 = getelementptr inbounds i8, ptr %11, i32 1
  store ptr %incdec.ptr21, ptr %in.addr, align 8
  %12 = load i8, ptr %11, align 1
  %conv22 = zext i8 %12 to i64
  %shl23 = shl i64 %conv22, 24
  %conv24 = trunc i64 %shl23 to i32
  %arrayidx25 = getelementptr inbounds [2 x i32], ptr %d, i64 0, i64 1
  store i32 %conv24, ptr %arrayidx25, align 4
  %13 = load ptr, ptr %in.addr, align 8
  %incdec.ptr26 = getelementptr inbounds i8, ptr %13, i32 1
  store ptr %incdec.ptr26, ptr %in.addr, align 8
  %14 = load i8, ptr %13, align 1
  %conv27 = zext i8 %14 to i64
  %shl28 = shl i64 %conv27, 16
  %arrayidx29 = getelementptr inbounds [2 x i32], ptr %d, i64 0, i64 1
  %15 = load i32, ptr %arrayidx29, align 4
  %conv30 = zext i32 %15 to i64
  %or31 = or i64 %conv30, %shl28
  %conv32 = trunc i64 %or31 to i32
  store i32 %conv32, ptr %arrayidx29, align 4
  %16 = load ptr, ptr %in.addr, align 8
  %incdec.ptr33 = getelementptr inbounds i8, ptr %16, i32 1
  store ptr %incdec.ptr33, ptr %in.addr, align 8
  %17 = load i8, ptr %16, align 1
  %conv34 = zext i8 %17 to i64
  %shl35 = shl i64 %conv34, 8
  %arrayidx36 = getelementptr inbounds [2 x i32], ptr %d, i64 0, i64 1
  %18 = load i32, ptr %arrayidx36, align 4
  %conv37 = zext i32 %18 to i64
  %or38 = or i64 %conv37, %shl35
  %conv39 = trunc i64 %or38 to i32
  store i32 %conv39, ptr %arrayidx36, align 4
  %19 = load ptr, ptr %in.addr, align 8
  %incdec.ptr40 = getelementptr inbounds i8, ptr %19, i32 1
  store ptr %incdec.ptr40, ptr %in.addr, align 8
  %20 = load i8, ptr %19, align 1
  %conv41 = zext i8 %20 to i64
  %arrayidx42 = getelementptr inbounds [2 x i32], ptr %d, i64 0, i64 1
  %21 = load i32, ptr %arrayidx42, align 4
  %conv43 = zext i32 %21 to i64
  %or44 = or i64 %conv43, %conv41
  %conv45 = trunc i64 %or44 to i32
  store i32 %conv45, ptr %arrayidx42, align 4
  %22 = load i32, ptr %encrypt.addr, align 4
  %tobool = icmp ne i32 %22, 0
  br i1 %tobool, label %if.then, label %if.else

if.then:                                          ; preds = %entry
  %arraydecay = getelementptr inbounds [2 x i32], ptr %d, i64 0, i64 0
  %23 = load ptr, ptr %key.addr, align 8
  call void @BF_encrypt(ptr noundef %arraydecay, ptr noundef %23)
  br label %if.end

if.else:                                          ; preds = %entry
  %arraydecay46 = getelementptr inbounds [2 x i32], ptr %d, i64 0, i64 0
  %24 = load ptr, ptr %key.addr, align 8
  call void @BF_decrypt(ptr noundef %arraydecay46, ptr noundef %24)
  br label %if.end

if.end:                                           ; preds = %if.else, %if.then
  %arrayidx47 = getelementptr inbounds [2 x i32], ptr %d, i64 0, i64 0
  %25 = load i32, ptr %arrayidx47, align 4
  %shr = lshr i32 %25, 24
  %and = and i32 %shr, 255
  %conv48 = trunc i32 %and to i8
  %26 = load ptr, ptr %out.addr, align 8
  %incdec.ptr49 = getelementptr inbounds i8, ptr %26, i32 1
  store ptr %incdec.ptr49, ptr %out.addr, align 8
  store i8 %conv48, ptr %26, align 1
  %arrayidx50 = getelementptr inbounds [2 x i32], ptr %d, i64 0, i64 0
  %27 = load i32, ptr %arrayidx50, align 4
  %shr51 = lshr i32 %27, 16
  %and52 = and i32 %shr51, 255
  %conv53 = trunc i32 %and52 to i8
  %28 = load ptr, ptr %out.addr, align 8
  %incdec.ptr54 = getelementptr inbounds i8, ptr %28, i32 1
  store ptr %incdec.ptr54, ptr %out.addr, align 8
  store i8 %conv53, ptr %28, align 1
  %arrayidx55 = getelementptr inbounds [2 x i32], ptr %d, i64 0, i64 0
  %29 = load i32, ptr %arrayidx55, align 4
  %shr56 = lshr i32 %29, 8
  %and57 = and i32 %shr56, 255
  %conv58 = trunc i32 %and57 to i8
  %30 = load ptr, ptr %out.addr, align 8
  %incdec.ptr59 = getelementptr inbounds i8, ptr %30, i32 1
  store ptr %incdec.ptr59, ptr %out.addr, align 8
  store i8 %conv58, ptr %30, align 1
  %arrayidx60 = getelementptr inbounds [2 x i32], ptr %d, i64 0, i64 0
  %31 = load i32, ptr %arrayidx60, align 4
  %and61 = and i32 %31, 255
  %conv62 = trunc i32 %and61 to i8
  %32 = load ptr, ptr %out.addr, align 8
  %incdec.ptr63 = getelementptr inbounds i8, ptr %32, i32 1
  store ptr %incdec.ptr63, ptr %out.addr, align 8
  store i8 %conv62, ptr %32, align 1
  %arrayidx64 = getelementptr inbounds [2 x i32], ptr %d, i64 0, i64 1
  %33 = load i32, ptr %arrayidx64, align 4
  %shr65 = lshr i32 %33, 24
  %and66 = and i32 %shr65, 255
  %conv67 = trunc i32 %and66 to i8
  %34 = load ptr, ptr %out.addr, align 8
  %incdec.ptr68 = getelementptr inbounds i8, ptr %34, i32 1
  store ptr %incdec.ptr68, ptr %out.addr, align 8
  store i8 %conv67, ptr %34, align 1
  %arrayidx69 = getelementptr inbounds [2 x i32], ptr %d, i64 0, i64 1
  %35 = load i32, ptr %arrayidx69, align 4
  %shr70 = lshr i32 %35, 16
  %and71 = and i32 %shr70, 255
  %conv72 = trunc i32 %and71 to i8
  %36 = load ptr, ptr %out.addr, align 8
  %incdec.ptr73 = getelementptr inbounds i8, ptr %36, i32 1
  store ptr %incdec.ptr73, ptr %out.addr, align 8
  store i8 %conv72, ptr %36, align 1
  %arrayidx74 = getelementptr inbounds [2 x i32], ptr %d, i64 0, i64 1
  %37 = load i32, ptr %arrayidx74, align 4
  %shr75 = lshr i32 %37, 8
  %and76 = and i32 %shr75, 255
  %conv77 = trunc i32 %and76 to i8
  %38 = load ptr, ptr %out.addr, align 8
  %incdec.ptr78 = getelementptr inbounds i8, ptr %38, i32 1
  store ptr %incdec.ptr78, ptr %out.addr, align 8
  store i8 %conv77, ptr %38, align 1
  %arrayidx79 = getelementptr inbounds [2 x i32], ptr %d, i64 0, i64 1
  %39 = load i32, ptr %arrayidx79, align 4
  %and80 = and i32 %39, 255
  %conv81 = trunc i32 %and80 to i8
  %40 = load ptr, ptr %out.addr, align 8
  %incdec.ptr82 = getelementptr inbounds i8, ptr %40, i32 1
  store ptr %incdec.ptr82, ptr %out.addr, align 8
  store i8 %conv81, ptr %40, align 1
  ret void
}