; Function Attrs: mustprogress nofree norecurse nosync nounwind willreturn memory(argmem: readwrite) uwtable
define hidden void @BF_ecb_encrypt(ptr noundef readonly captures(none) %in, ptr noundef writeonly captures(none) initializes((0, 8)) %out, ptr noundef %key, i32 noundef %encrypt) local_unnamed_addr #0 {
entry:
  %d = alloca [2 x i32], align 4
  %incdec.ptr = getelementptr inbounds nuw i8, ptr %in, i64 1
  %0 = load i8, ptr %in, align 1
  %conv = zext i8 %0 to i32
  %shl = shl nuw i32 %conv, 24
  %incdec.ptr2 = getelementptr inbounds nuw i8, ptr %in, i64 2
  %1 = load i8, ptr %incdec.ptr, align 1
  %conv3 = zext i8 %1 to i32
  %shl4 = shl nuw nsw i32 %conv3, 16
  %or = or disjoint i32 %shl4, %shl
  %incdec.ptr8 = getelementptr inbounds nuw i8, ptr %in, i64 3
  %2 = load i8, ptr %incdec.ptr2, align 1
  %conv9 = zext i8 %2 to i32
  %shl10 = shl nuw nsw i32 %conv9, 8
  %or13 = or disjoint i32 %shl10, %or
  %incdec.ptr15 = getelementptr inbounds nuw i8, ptr %in, i64 4
  %3 = load i8, ptr %incdec.ptr8, align 1
  %4 = zext i8 %3 to i32
  %5 = or disjoint i32 %or13, %4
  store i32 %5, ptr %d, align 4
  %incdec.ptr21 = getelementptr inbounds nuw i8, ptr %in, i64 5
  %6 = load i8, ptr %incdec.ptr15, align 1
  %conv22 = zext i8 %6 to i32
  %shl23 = shl nuw i32 %conv22, 24
  %arrayidx25 = getelementptr inbounds nuw i8, ptr %d, i64 4
  %incdec.ptr26 = getelementptr inbounds nuw i8, ptr %in, i64 6
  %7 = load i8, ptr %incdec.ptr21, align 1
  %conv27 = zext i8 %7 to i32
  %shl28 = shl nuw nsw i32 %conv27, 16
  %or31 = or disjoint i32 %shl28, %shl23
  %incdec.ptr33 = getelementptr inbounds nuw i8, ptr %in, i64 7
  %8 = load i8, ptr %incdec.ptr26, align 1
  %conv34 = zext i8 %8 to i32
  %shl35 = shl nuw nsw i32 %conv34, 8
  %or38 = or disjoint i32 %shl35, %or31
  %9 = load i8, ptr %incdec.ptr33, align 1
  %10 = zext i8 %9 to i32
  %11 = or disjoint i32 %or38, %10
  store i32 %11, ptr %arrayidx25, align 4
  %tobool.not = icmp eq i32 %encrypt, 0
  br i1 %tobool.not, label %if.else, label %if.then

if.then:                                          ; preds = %entry
  call void @BF_encrypt(ptr noundef nonnull %d, ptr noundef %key)
  br label %if.end

if.else:                                          ; preds = %entry
  call void @BF_decrypt(ptr noundef nonnull %d, ptr noundef %key)
  br label %if.end

if.end:                                           ; preds = %if.else, %if.then
  %12 = load i32, ptr %d, align 4
  %shr = lshr i32 %12, 24
  %conv48 = trunc nuw i32 %shr to i8
  %incdec.ptr49 = getelementptr inbounds nuw i8, ptr %out, i64 1
  store i8 %conv48, ptr %out, align 1
  %shr51 = lshr i32 %12, 16
  %conv53 = trunc i32 %shr51 to i8
  %incdec.ptr54 = getelementptr inbounds nuw i8, ptr %out, i64 2
  store i8 %conv53, ptr %incdec.ptr49, align 1
  %shr56 = lshr i32 %12, 8
  %conv58 = trunc i32 %shr56 to i8
  %incdec.ptr59 = getelementptr inbounds nuw i8, ptr %out, i64 3
  store i8 %conv58, ptr %incdec.ptr54, align 1
  %conv62 = trunc i32 %12 to i8
  %incdec.ptr63 = getelementptr inbounds nuw i8, ptr %out, i64 4
  store i8 %conv62, ptr %incdec.ptr59, align 1
  %13 = load i32, ptr %arrayidx25, align 4
  %shr65 = lshr i32 %13, 24
  %conv67 = trunc nuw i32 %shr65 to i8
  %incdec.ptr68 = getelementptr inbounds nuw i8, ptr %out, i64 5
  store i8 %conv67, ptr %incdec.ptr63, align 1
  %shr70 = lshr i32 %13, 16
  %conv72 = trunc i32 %shr70 to i8
  %incdec.ptr73 = getelementptr inbounds nuw i8, ptr %out, i64 6
  store i8 %conv72, ptr %incdec.ptr68, align 1
  %shr75 = lshr i32 %13, 8
  %conv77 = trunc i32 %shr75 to i8
  %incdec.ptr78 = getelementptr inbounds nuw i8, ptr %out, i64 7
  store i8 %conv77, ptr %incdec.ptr73, align 1
  %conv81 = trunc i32 %13 to i8
  store i8 %conv81, ptr %incdec.ptr78, align 1
  ret void
}